target datalayout = "e-m:e-p270:32:32-p271:32:32-p272:64:64-i64:64-i128:128-f80:128-n8:16:32:64-S128"
target triple = "x86_64-pc-linux-gnu"

%struct.ossl_property_definition_st = type { i32, i32, i32, i8, %union.anon }
%union.anon = type { i64 }
%struct.ossl_property_list_st = type { i32, i8, [1 x %struct.ossl_property_definition_st] }

@.str = private unnamed_addr constant [44 x i8] c"../openssl/crypto/property/property_parse.c\00", align 1

; Function Attrs: nounwind uwtable
define ptr @ossl_property_merge(ptr noundef %0, ptr noundef %1) #0 {
  %3 = alloca ptr, align 8
  %4 = alloca ptr, align 8
  %5 = alloca ptr, align 8
  %6 = alloca ptr, align 8
  %7 = alloca ptr, align 8
  %8 = alloca ptr, align 8
  %9 = alloca ptr, align 8
  %10 = alloca i32, align 4
  %11 = alloca i32, align 4
  %12 = alloca i32, align 4
  %13 = alloca i32, align 4
  %14 = alloca i32, align 4
  store ptr %0, ptr %4, align 8, !tbaa !12
  store ptr %1, ptr %5, align 8, !tbaa !12
  call void @llvm.lifetime.start.p0(i64 8, ptr %6) #7
  %15 = load ptr, ptr %4, align 8, !tbaa !12
  %16 = getelementptr inbounds nuw %struct.ossl_property_list_st, ptr %15, i32 0, i32 2
  %17 = getelementptr inbounds [1 x %struct.ossl_property_definition_st], ptr %16, i64 0, i64 0
  store ptr %17, ptr %6, align 8, !tbaa !10
  call void @llvm.lifetime.start.p0(i64 8, ptr %7) #7
  %18 = load ptr, ptr %5, align 8, !tbaa !12
  %19 = getelementptr inbounds nuw %struct.ossl_property_list_st, ptr %18, i32 0, i32 2
  %20 = getelementptr inbounds [1 x %struct.ossl_property_definition_st], ptr %19, i64 0, i64 0
  store ptr %20, ptr %7, align 8, !tbaa !10
  call void @llvm.lifetime.start.p0(i64 8, ptr %8) #7
  call void @llvm.lifetime.start.p0(i64 8, ptr %9) #7
  call void @llvm.lifetime.start.p0(i64 4, ptr %10) #7
  call void @llvm.lifetime.start.p0(i64 4, ptr %11) #7
  call void @llvm.lifetime.start.p0(i64 4, ptr %12) #7
  call void @llvm.lifetime.start.p0(i64 4, ptr %13) #7
  %21 = load ptr, ptr %4, align 8, !tbaa !12
  %22 = getelementptr inbounds nuw %struct.ossl_property_list_st, ptr %21, i32 0, i32 0
  %23 = load i32, ptr %22, align 8, !tbaa !38
  %24 = load ptr, ptr %5, align 8, !tbaa !12
  %25 = getelementptr inbounds nuw %struct.ossl_property_list_st, ptr %24, i32 0, i32 0
  %26 = load i32, ptr %25, align 8, !tbaa !38
  %27 = add nsw i32 %23, %26
  store i32 %27, ptr %13, align 4, !tbaa !17
  %28 = load i32, ptr %13, align 4, !tbaa !17
  %29 = icmp eq i32 %28, 0
  br i1 %29, label %30, label %31

30:                                               ; preds = %2
  br label %34

31:                                               ; preds = %2
  %32 = load i32, ptr %13, align 4, !tbaa !17
  %33 = sub nsw i32 %32, 1
  br label %34

34:                                               ; preds = %31, %30
  %35 = phi i32 [ 0, %30 ], [ %33, %31 ]
  %36 = sext i32 %35 to i64
  %37 = mul i64 %36, 24
  %38 = add i64 32, %37
  %39 = call noalias ptr @CRYPTO_malloc(i64 noundef %38, ptr noundef @.str, i32 noundef 549)
  store ptr %39, ptr %9, align 8, !tbaa !12
  %40 = load ptr, ptr %9, align 8, !tbaa !12
  %41 = icmp eq ptr %40, null
  br i1 %41, label %42, label %43

42:                                               ; preds = %34
  store ptr null, ptr %3, align 8
  store i32 1, ptr %14, align 4
  br label %164

43:                                               ; preds = %34
  %44 = load ptr, ptr %9, align 8, !tbaa !12
  %45 = getelementptr inbounds nuw %struct.ossl_property_list_st, ptr %44, i32 0, i32 1
  %46 = load i8, ptr %45, align 4
  %47 = and i8 %46, -2
  %48 = or i8 %47, 0
  store i8 %48, ptr %45, align 4
  store i32 0, ptr %12, align 4, !tbaa !17
  store i32 0, ptr %11, align 4, !tbaa !17
  store i32 0, ptr %10, align 4, !tbaa !17
  br label %49

49:                                               ; preds = %156, %43
  %50 = load i32, ptr %10, align 4, !tbaa !17
  %51 = load ptr, ptr %4, align 8, !tbaa !12
  %52 = getelementptr inbounds nuw %struct.ossl_property_list_st, ptr %51, i32 0, i32 0
  %53 = load i32, ptr %52, align 8, !tbaa !38
  %54 = icmp slt i32 %50, %53
  br i1 %54, label %61, label %55

55:                                               ; preds = %49
  %56 = load i32, ptr %11, align 4, !tbaa !17
  %57 = load ptr, ptr %5, align 8, !tbaa !12
  %58 = getelementptr inbounds nuw %struct.ossl_property_list_st, ptr %57, i32 0, i32 0
  %59 = load i32, ptr %58, align 8, !tbaa !38
  %60 = icmp slt i32 %56, %59
  br label %61

61:                                               ; preds = %55, %49
  %62 = phi i1 [ true, %49 ], [ %60, %55 ]
  br i1 %62, label %63, label %159

63:                                               ; preds = %61
  %64 = load i32, ptr %10, align 4, !tbaa !17
  %65 = load ptr, ptr %4, align 8, !tbaa !12
  %66 = getelementptr inbounds nuw %struct.ossl_property_list_st, ptr %65, i32 0, i32 0
  %67 = load i32, ptr %66, align 8, !tbaa !38
  %68 = icmp sge i32 %64, %67
  br i1 %68, label %69, label %75

69:                                               ; preds = %63
  %70 = load ptr, ptr %7, align 8, !tbaa !10
  %71 = load i32, ptr %11, align 4, !tbaa !17
  %72 = add nsw i32 %71, 1
  store i32 %72, ptr %11, align 4, !tbaa !17
  %73 = sext i32 %71 to i64
  %74 = getelementptr inbounds %struct.ossl_property_definition_st, ptr %70, i64 %73
  store ptr %74, ptr %8, align 8, !tbaa !10
  br label %132

75:                                               ; preds = %63
  %76 = load i32, ptr %11, align 4, !tbaa !17
  %77 = load ptr, ptr %5, align 8, !tbaa !12
  %78 = getelementptr inbounds nuw %struct.ossl_property_list_st, ptr %77, i32 0, i32 0
  %79 = load i32, ptr %78, align 8, !tbaa !38
  %80 = icmp sge i32 %76, %79
  br i1 %80, label %81, label %87

81:                                               ; preds = %75
  %82 = load ptr, ptr %6, align 8, !tbaa !10
  %83 = load i32, ptr %10, align 4, !tbaa !17
  %84 = add nsw i32 %83, 1
  store i32 %84, ptr %10, align 4, !tbaa !17
  %85 = sext i32 %83 to i64
  %86 = getelementptr inbounds %struct.ossl_property_definition_st, ptr %82, i64 %85
  store ptr %86, ptr %8, align 8, !tbaa !10
  br label %131

87:                                               ; preds = %75
  %88 = load ptr, ptr %6, align 8, !tbaa !10
  %89 = load i32, ptr %10, align 4, !tbaa !17
  %90 = sext i32 %89 to i64
  %91 = getelementptr inbounds %struct.ossl_property_definition_st, ptr %88, i64 %90
  %92 = getelementptr inbounds nuw %struct.ossl_property_definition_st, ptr %91, i32 0, i32 0
  %93 = load i32, ptr %92, align 8, !tbaa !21
  %94 = load ptr, ptr %7, align 8, !tbaa !10
  %95 = load i32, ptr %11, align 4, !tbaa !17
  %96 = sext i32 %95 to i64
  %97 = getelementptr inbounds %struct.ossl_property_definition_st, ptr %94, i64 %96
  %98 = getelementptr inbounds nuw %struct.ossl_property_definition_st, ptr %97, i32 0, i32 0
  %99 = load i32, ptr %98, align 8, !tbaa !21
  %100 = icmp sle i32 %93, %99
  br i1 %100, label %101, label %124

101:                                              ; preds = %87
  %102 = load ptr, ptr %6, align 8, !tbaa !10
  %103 = load i32, ptr %10, align 4, !tbaa !17
  %104 = sext i32 %103 to i64
  %105 = getelementptr inbounds %struct.ossl_property_definition_st, ptr %102, i64 %104
  %106 = getelementptr inbounds nuw %struct.ossl_property_definition_st, ptr %105, i32 0, i32 0
  %107 = load i32, ptr %106, align 8, !tbaa !21
  %108 = load ptr, ptr %7, align 8, !tbaa !10
  %109 = load i32, ptr %11, align 4, !tbaa !17
  %110 = sext i32 %109 to i64
  %111 = getelementptr inbounds %struct.ossl_property_definition_st, ptr %108, i64 %110
  %112 = getelementptr inbounds nuw %struct.ossl_property_definition_st, ptr %111, i32 0, i32 0
  %113 = load i32, ptr %112, align 8, !tbaa !21
  %114 = icmp eq i32 %107, %113
  br i1 %114, label %115, label %118

115:                                              ; preds = %101
  %116 = load i32, ptr %11, align 4, !tbaa !17
  %117 = add nsw i32 %116, 1
  store i32 %117, ptr %11, align 4, !tbaa !17
  br label %118

118:                                              ; preds = %115, %101
  %119 = load ptr, ptr %6, align 8, !tbaa !10
  %120 = load i32, ptr %10, align 4, !tbaa !17
  %121 = add nsw i32 %120, 1
  store i32 %121, ptr %10, align 4, !tbaa !17
  %122 = sext i32 %120 to i64
  %123 = getelementptr inbounds %struct.ossl_property_definition_st, ptr %119, i64 %122
  store ptr %123, ptr %8, align 8, !tbaa !10
  br label %130

124:                                              ; preds = %87
  %125 = load ptr, ptr %7, align 8, !tbaa !10
  %126 = load i32, ptr %11, align 4, !tbaa !17
  %127 = add nsw i32 %126, 1
  store i32 %127, ptr %11, align 4, !tbaa !17
  %128 = sext i32 %126 to i64
  %129 = getelementptr inbounds %struct.ossl_property_definition_st, ptr %125, i64 %128
  store ptr %129, ptr %8, align 8, !tbaa !10
  br label %130

130:                                              ; preds = %124, %118
  br label %131

131:                                              ; preds = %130, %81
  br label %132

132:                                              ; preds = %131, %69
  %133 = load ptr, ptr %9, align 8, !tbaa !12
  %134 = getelementptr inbounds nuw %struct.ossl_property_list_st, ptr %133, i32 0, i32 2
  %135 = getelementptr inbounds [1 x %struct.ossl_property_definition_st], ptr %134, i64 0, i64 0
  %136 = load i32, ptr %12, align 4, !tbaa !17
  %137 = sext i32 %136 to i64
  %138 = getelementptr inbounds %struct.ossl_property_definition_st, ptr %135, i64 %137
  %139 = load ptr, ptr %8, align 8, !tbaa !10
  call void @llvm.memcpy.p0.p0.i64(ptr align 8 %138, ptr align 8 %139, i64 24, i1 false)
  %140 = load ptr, ptr %8, align 8, !tbaa !10
  %141 = getelementptr inbounds nuw %struct.ossl_property_definition_st, ptr %140, i32 0, i32 3
  %142 = load i8, ptr %141, align 4
  %143 = and i8 %142, 1
  %144 = zext i8 %143 to i32
  %145 = load ptr, ptr %9, align 8, !tbaa !12
  %146 = getelementptr inbounds nuw %struct.ossl_property_list_st, ptr %145, i32 0, i32 1
  %147 = load i8, ptr %146, align 4
  %148 = and i8 %147, 1
  %149 = zext i8 %148 to i32
  %150 = or i32 %149, %144
  %151 = trunc i32 %150 to i8
  %152 = load i8, ptr %146, align 4
  %153 = and i8 %151, 1
  %154 = and i8 %152, -2
  %155 = or i8 %154, %153
  store i8 %155, ptr %146, align 4
  br label %156

156:                                              ; preds = %132
  %157 = load i32, ptr %12, align 4, !tbaa !17
  %158 = add nsw i32 %157, 1
  store i32 %158, ptr %12, align 4, !tbaa !17
  br label %49, !llvm.loop !42

159:                                              ; preds = %61
  %160 = load i32, ptr %12, align 4, !tbaa !17
  %161 = load ptr, ptr %9, align 8, !tbaa !12
  %162 = getelementptr inbounds nuw %struct.ossl_property_list_st, ptr %161, i32 0, i32 0
  store i32 %160, ptr %162, align 8, !tbaa !38
  %163 = load ptr, ptr %9, align 8, !tbaa !12
  store ptr %163, ptr %3, align 8
  store i32 1, ptr %14, align 4
  br label %164

164:                                              ; preds = %159, %42
  call void @llvm.lifetime.end.p0(i64 4, ptr %13) #7
  call void @llvm.lifetime.end.p0(i64 4, ptr %12) #7
  call void @llvm.lifetime.end.p0(i64 4, ptr %11) #7
  call void @llvm.lifetime.end.p0(i64 4, ptr %10) #7
  call void @llvm.lifetime.end.p0(i64 8, ptr %9) #7
  call void @llvm.lifetime.end.p0(i64 8, ptr %8) #7
  call void @llvm.lifetime.end.p0(i64 8, ptr %7) #7
  call void @llvm.lifetime.end.p0(i64 8, ptr %6) #7
  %165 = load ptr, ptr %3, align 8
  ret ptr %165
}