; Function Attrs: nounwind uwtable
define noalias ptr @ossl_property_merge(ptr noundef readonly captures(none) %0, ptr noundef readonly captures(none) %1) local_unnamed_addr #0 {
  %3 = getelementptr inbounds nuw i8, ptr %0, i64 8
  %4 = getelementptr inbounds nuw i8, ptr %1, i64 8
  %5 = load i32, ptr %0, align 8, !tbaa !25
  %6 = load i32, ptr %1, align 8, !tbaa !25
  %7 = add nsw i32 %6, %5
  %8 = tail call i32 @llvm.usub.sat.i32(i32 %7, i32 1)
  %9 = sext i32 %8 to i64
  %10 = mul nsw i64 %9, 24
  %11 = add nsw i64 %10, 32
  %12 = tail call noalias ptr @CRYPTO_malloc(i64 noundef %11, ptr noundef nonnull @.str, i32 noundef 549) #9
  %13 = icmp eq ptr %12, null
  br i1 %13, label %54, label %14

14:                                               ; preds = %2
  %15 = getelementptr inbounds nuw i8, ptr %12, i64 4
  %16 = load i8, ptr %15, align 4
  %17 = and i8 %16, -2
  store i8 %17, ptr %15, align 4
  %18 = load i32, ptr %0, align 8, !tbaa !25
  %19 = getelementptr inbounds nuw i8, ptr %12, i64 8
  %20 = load i32, ptr %1, align 8, !tbaa !25
  br label %21

21:                                               ; preds = %46, %14
  %22 = phi i8 [ %51, %46 ], [ %17, %14 ]
  %indvars.iv = phi i64 [ %indvars.iv.next, %46 ], [ 0, %14 ]
  %.044 = phi i32 [ %.145, %46 ], [ 0, %14 ]
  %.043 = phi i32 [ %.1, %46 ], [ 0, %14 ]
  %23 = icmp slt i32 %.044, %18
  %.not50 = icmp slt i32 %.043, %20
  br i1 %23, label %28, label %24

24:                                               ; preds = %21
  br i1 %.not50, label %.critedge, label %52

.critedge:                                        ; preds = %24
  %25 = add nsw i32 %.043, 1
  %26 = sext i32 %.043 to i64
  %27 = getelementptr inbounds %struct.ossl_property_definition_st, ptr %4, i64 %26
  br label %46

28:                                               ; preds = %21
  br i1 %.not50, label %33, label %29

29:                                               ; preds = %28
  %30 = add nsw i32 %.044, 1
  %31 = sext i32 %.044 to i64
  %32 = getelementptr inbounds %struct.ossl_property_definition_st, ptr %3, i64 %31
  br label %46

33:                                               ; preds = %28
  %34 = sext i32 %.044 to i64
  %35 = getelementptr inbounds %struct.ossl_property_definition_st, ptr %3, i64 %34
  %36 = load i32, ptr %35, align 8, !tbaa !14
  %37 = sext i32 %.043 to i64
  %38 = getelementptr inbounds %struct.ossl_property_definition_st, ptr %4, i64 %37
  %39 = load i32, ptr %38, align 8, !tbaa !14
  %.not51 = icmp sgt i32 %36, %39
  br i1 %.not51, label %44, label %40

40:                                               ; preds = %33
  %41 = icmp eq i32 %36, %39
  %42 = zext i1 %41 to i32
  %spec.select = add nsw i32 %.043, %42
  %43 = add nsw i32 %.044, 1
  br label %46

44:                                               ; preds = %33
  %45 = add nsw i32 %.043, 1
  br label %46

46:                                               ; preds = %29, %44, %40, %.critedge
  %.046 = phi ptr [ %27, %.critedge ], [ %32, %29 ], [ %35, %40 ], [ %38, %44 ]
  %.145 = phi i32 [ %.044, %.critedge ], [ %30, %29 ], [ %43, %40 ], [ %.044, %44 ]
  %.1 = phi i32 [ %25, %.critedge ], [ %.043, %29 ], [ %spec.select, %40 ], [ %45, %44 ]
  %47 = getelementptr inbounds nuw %struct.ossl_property_definition_st, ptr %19, i64 %indvars.iv
  tail call void @llvm.memcpy.p0.p0.i64(ptr noundef nonnull align 8 dereferenceable(24) %47, ptr noundef nonnull align 8 dereferenceable(24) %.046, i64 24, i1 false)
  %48 = getelementptr inbounds nuw i8, ptr %.046, i64 12
  %49 = load i8, ptr %48, align 4
  %50 = and i8 %49, 1
  %51 = or i8 %50, %22
  store i8 %51, ptr %15, align 4
  %indvars.iv.next = add nuw nsw i64 %indvars.iv, 1
  br label %21, !llvm.loop !28

52:                                               ; preds = %24
  %53 = trunc nuw nsw i64 %indvars.iv to i32
  store i32 %53, ptr %12, align 8, !tbaa !25
  br label %54

54:                                               ; preds = %2, %52
  ret ptr %12
}